target datalayout = "e-m:e-p270:32:32-p271:32:32-p272:64:64-i64:64-i128:128-f80:128-n8:16:32:64-S128"
target triple = "x86_64-pc-linux-gnu"

%struct._GList = type { ptr, ptr, ptr }
%struct._GString = type { ptr, i64, i64 }

@.str.10 = private unnamed_addr constant [1 x i8] zeroinitializer, align 1
@.str.11 = private unnamed_addr constant [3 x i8] c"\0A\09\00", align 1
@g_utf8_skip = external constant ptr, align 8

; Function Attrs: inlinehint null_pointer_is_valid sspstrong uwtable
define internal ptr @g_string_append_c_inline(ptr noundef %0, i8 noundef signext %1) #9 {
  %3 = alloca ptr, align 8
  %4 = alloca i8, align 1
  store ptr %0, ptr %3, align 8
  store i8 %1, ptr %4, align 1
  %5 = load ptr, ptr %3, align 8
  %6 = getelementptr inbounds nuw %struct._GString, ptr %5, i32 0, i32 1
  %7 = load i64, ptr %6, align 8
  %8 = add i64 %7, 1
  %9 = load ptr, ptr %3, align 8
  %10 = getelementptr inbounds nuw %struct._GString, ptr %9, i32 0, i32 2
  %11 = load i64, ptr %10, align 8
  %12 = icmp ult i64 %8, %11
  br i1 %12, label %13, label %30

13:                                               ; preds = %2
  %14 = load i8, ptr %4, align 1
  %15 = load ptr, ptr %3, align 8
  %16 = getelementptr inbounds nuw %struct._GString, ptr %15, i32 0, i32 0
  %17 = load ptr, ptr %16, align 8
  %18 = load ptr, ptr %3, align 8
  %19 = getelementptr inbounds nuw %struct._GString, ptr %18, i32 0, i32 1
  %20 = load i64, ptr %19, align 8
  %21 = add i64 %20, 1
  store i64 %21, ptr %19, align 8
  %22 = getelementptr i8, ptr %17, i64 %20
  store i8 %14, ptr %22, align 1
  %23 = load ptr, ptr %3, align 8
  %24 = getelementptr inbounds nuw %struct._GString, ptr %23, i32 0, i32 0
  %25 = load ptr, ptr %24, align 8
  %26 = load ptr, ptr %3, align 8
  %27 = getelementptr inbounds nuw %struct._GString, ptr %26, i32 0, i32 1
  %28 = load i64, ptr %27, align 8
  %29 = getelementptr i8, ptr %25, i64 %28
  store i8 0, ptr %29, align 1
  br label %34

30:                                               ; preds = %2
  %31 = load ptr, ptr %3, align 8
  %32 = load i8, ptr %4, align 1
  %33 = call ptr @g_string_insert_c(ptr noundef %31, i64 noundef -1, i8 noundef signext %32)
  br label %34

34:                                               ; preds = %30, %13
  %35 = load ptr, ptr %3, align 8
  ret ptr %35
}

; Function Attrs: null_pointer_is_valid sspstrong uwtable
define ptr @join_string_list(ptr noundef %0) #1 {
  %2 = alloca ptr, align 8
  %3 = alloca ptr, align 8
  %4 = alloca ptr, align 8
  %5 = alloca ptr, align 8
  %6 = alloca ptr, align 8
  %7 = alloca i32, align 4
  %8 = alloca i32, align 4
  store ptr %0, ptr %2, align 8
  call void @llvm.lifetime.start.p0(i64 8, ptr %3) #17
  %9 = call ptr @g_string_new(ptr noundef @.str.10)
  store ptr %9, ptr %3, align 8
  call void @llvm.lifetime.start.p0(i64 8, ptr %4) #17
  call void @llvm.lifetime.start.p0(i64 8, ptr %5) #17
  call void @llvm.lifetime.start.p0(i64 8, ptr %6) #17
  call void @llvm.lifetime.start.p0(i64 4, ptr %7) #17
  store i32 0, ptr %7, align 4
  %10 = load ptr, ptr %2, align 8
  %11 = call ptr @g_list_first(ptr noundef %10)
  store ptr %11, ptr %5, align 8
  store ptr %11, ptr %4, align 8
  br label %12

12:                                               ; preds = %74, %1
  %13 = load ptr, ptr %4, align 8
  %14 = icmp ne ptr %13, null
  br i1 %14, label %15, label %80

15:                                               ; preds = %12
  %16 = load i32, ptr %7, align 4
  %17 = add i32 %16, 1
  store i32 %17, ptr %7, align 4
  %18 = load ptr, ptr %4, align 8
  %19 = getelementptr inbounds nuw %struct._GList, ptr %18, i32 0, i32 0
  %20 = load ptr, ptr %19, align 8
  store ptr %20, ptr %6, align 8
  %21 = load ptr, ptr %4, align 8
  %22 = load ptr, ptr %5, align 8
  %23 = icmp ne ptr %21, %22
  br i1 %23, label %24, label %27

24:                                               ; preds = %15
  %25 = load ptr, ptr %3, align 8
  %26 = call ptr @g_string_append_c_inline(ptr noundef %25, i8 noundef signext 44)
  br label %27

27:                                               ; preds = %24, %15
  %28 = load i32, ptr %7, align 4
  %29 = urem i32 %28, 2
  %30 = icmp ne i32 %29, 0
  br i1 %30, label %31, label %34

31:                                               ; preds = %27
  %32 = load ptr, ptr %3, align 8
  %33 = call ptr @g_string_append(ptr noundef %32, ptr noundef @.str.11)
  br label %37

34:                                               ; preds = %27
  %35 = load ptr, ptr %3, align 8
  %36 = call ptr @g_string_append_c_inline(ptr noundef %35, i8 noundef signext 32)
  br label %37

37:                                               ; preds = %34, %31
  %38 = load ptr, ptr %3, align 8
  %39 = call ptr @g_string_append_c_inline(ptr noundef %38, i8 noundef signext 34)
  br label %40

40:                                               ; preds = %63, %37
  %41 = load ptr, ptr %6, align 8
  %42 = load i8, ptr %41, align 1
  %43 = icmp ne i8 %42, 0
  br i1 %43, label %44, label %74

44:                                               ; preds = %40
  call void @llvm.lifetime.start.p0(i64 4, ptr %8) #17
  %45 = load ptr, ptr %6, align 8
  %46 = call i32 @g_utf8_get_char(ptr noundef %45) #22
  store i32 %46, ptr %8, align 4
  %47 = load i32, ptr %8, align 4
  %48 = icmp eq i32 %47, 34
  br i1 %48, label %52, label %49

49:                                               ; preds = %44
  %50 = load i32, ptr %8, align 4
  %51 = icmp eq i32 %50, 92
  br i1 %51, label %52, label %55

52:                                               ; preds = %49, %44
  %53 = load ptr, ptr %3, align 8
  %54 = call ptr @g_string_append_c_inline(ptr noundef %53, i8 noundef signext 92)
  br label %55

55:                                               ; preds = %52, %49
  %56 = load i32, ptr %8, align 4
  %57 = call i32 @g_unichar_isprint(i32 noundef %56) #23
  %58 = icmp ne i32 %57, 0
  br i1 %58, label %59, label %63

59:                                               ; preds = %55
  %60 = load ptr, ptr %3, align 8
  %61 = load i32, ptr %8, align 4
  %62 = call ptr @g_string_append_unichar(ptr noundef %60, i32 noundef %61)
  br label %63

63:                                               ; preds = %59, %55
  %64 = load ptr, ptr %6, align 8
  %65 = load ptr, ptr @g_utf8_skip, align 8
  %66 = load ptr, ptr %6, align 8
  %67 = load i8, ptr %66, align 1
  %68 = zext i8 %67 to i64
  %69 = getelementptr i8, ptr %65, i64 %68
  %70 = load i8, ptr %69, align 1
  %71 = sext i8 %70 to i32
  %72 = sext i32 %71 to i64
  %73 = getelementptr i8, ptr %64, i64 %72
  store ptr %73, ptr %6, align 8
  call void @llvm.lifetime.end.p0(i64 4, ptr %8) #17
  br label %40, !llvm.loop !24

74:                                               ; preds = %40
  %75 = load ptr, ptr %3, align 8
  %76 = call ptr @g_string_append_c_inline(ptr noundef %75, i8 noundef signext 34)
  %77 = load ptr, ptr %4, align 8
  %78 = getelementptr inbounds nuw %struct._GList, ptr %77, i32 0, i32 1
  %79 = load ptr, ptr %78, align 8
  store ptr %79, ptr %4, align 8
  br label %12, !llvm.loop !25

80:                                               ; preds = %12
  %81 = load ptr, ptr %3, align 8
  %82 = call ptr @g_string_free(ptr noundef %81, i32 noundef 0)
  call void @llvm.lifetime.end.p0(i64 4, ptr %7) #17
  call void @llvm.lifetime.end.p0(i64 8, ptr %6) #17
  call void @llvm.lifetime.end.p0(i64 8, ptr %5) #17
  call void @llvm.lifetime.end.p0(i64 8, ptr %4) #17
  call void @llvm.lifetime.end.p0(i64 8, ptr %3) #17
  ret ptr %82
}