; Function Attrs: null_pointer_is_valid sspstrong uwtable
define ptr @join_string_list(ptr noundef %0) local_unnamed_addr #1 {
  %2 = tail call ptr @g_string_new(ptr noundef nonnull @.str.10)
  %3 = tail call ptr @g_list_first(ptr noundef %0)
  %.not36 = icmp eq ptr %3, null
  br i1 %.not36, label %._crit_edge41, label %.lr.ph40

.lr.ph40:                                         ; preds = %1
  %4 = getelementptr inbounds nuw i8, ptr %2, i64 8
  %5 = getelementptr inbounds nuw i8, ptr %2, i64 16
  %6 = load ptr, ptr @g_utf8_skip, align 8
  br label %7

7:                                                ; preds = %.lr.ph40, %g_string_append_c_inline.exit33
  %.038 = phi ptr [ %3, %.lr.ph40 ], [ %90, %g_string_append_c_inline.exit33 ]
  %.02437 = phi i32 [ 0, %.lr.ph40 ], [ %8, %g_string_append_c_inline.exit33 ]
  %8 = add i32 %.02437, 1
  %9 = load ptr, ptr %.038, align 8
  %.not26 = icmp eq ptr %.038, %3
  br i1 %.not26, label %g_string_append_c_inline.exit, label %10

10:                                               ; preds = %7
  %11 = load i64, ptr %4, align 8
  %12 = add i64 %11, 1
  %13 = load i64, ptr %5, align 8
  %14 = icmp ult i64 %12, %13
  br i1 %14, label %15, label %21

15:                                               ; preds = %10
  %16 = load ptr, ptr %2, align 8
  store i64 %12, ptr %4, align 8
  %17 = getelementptr i8, ptr %16, i64 %11
  store i8 44, ptr %17, align 1
  %18 = load ptr, ptr %2, align 8
  %19 = load i64, ptr %4, align 8
  %20 = getelementptr i8, ptr %18, i64 %19
  store i8 0, ptr %20, align 1
  br label %g_string_append_c_inline.exit

21:                                               ; preds = %10
  %22 = tail call ptr @g_string_insert_c(ptr noundef %2, i64 noundef -1, i8 noundef signext 44)
  br label %g_string_append_c_inline.exit

g_string_append_c_inline.exit:                    ; preds = %21, %15, %7
  %23 = and i32 %.02437, 1
  %.not27.not = icmp eq i32 %23, 0
  br i1 %.not27.not, label %24, label %26

24:                                               ; preds = %g_string_append_c_inline.exit
  %25 = tail call ptr @g_string_append(ptr noundef %2, ptr noundef nonnull @.str.11)
  br label %g_string_append_c_inline.exit30

26:                                               ; preds = %g_string_append_c_inline.exit
  %27 = load i64, ptr %4, align 8
  %28 = add i64 %27, 1
  %29 = load i64, ptr %5, align 8
  %30 = icmp ult i64 %28, %29
  br i1 %30, label %31, label %37

31:                                               ; preds = %26
  %32 = load ptr, ptr %2, align 8
  store i64 %28, ptr %4, align 8
  %33 = getelementptr i8, ptr %32, i64 %27
  store i8 32, ptr %33, align 1
  %34 = load ptr, ptr %2, align 8
  %35 = load i64, ptr %4, align 8
  %36 = getelementptr i8, ptr %34, i64 %35
  store i8 0, ptr %36, align 1
  br label %g_string_append_c_inline.exit30

37:                                               ; preds = %26
  %38 = tail call ptr @g_string_insert_c(ptr noundef %2, i64 noundef -1, i8 noundef signext 32)
  br label %g_string_append_c_inline.exit30

g_string_append_c_inline.exit30:                  ; preds = %37, %31, %24
  %39 = load i64, ptr %4, align 8
  %40 = add i64 %39, 1
  %41 = load i64, ptr %5, align 8
  %42 = icmp ult i64 %40, %41
  br i1 %42, label %43, label %49

43:                                               ; preds = %g_string_append_c_inline.exit30
  %44 = load ptr, ptr %2, align 8
  store i64 %40, ptr %4, align 8
  %45 = getelementptr i8, ptr %44, i64 %39
  store i8 34, ptr %45, align 1
  %46 = load ptr, ptr %2, align 8
  %47 = load i64, ptr %4, align 8
  %48 = getelementptr i8, ptr %46, i64 %47
  store i8 0, ptr %48, align 1
  br label %g_string_append_c_inline.exit31

49:                                               ; preds = %g_string_append_c_inline.exit30
  %50 = tail call ptr @g_string_insert_c(ptr noundef %2, i64 noundef -1, i8 noundef signext 34)
  br label %g_string_append_c_inline.exit31

g_string_append_c_inline.exit31:                  ; preds = %43, %49
  %51 = load i8, ptr %9, align 1
  %.not2834 = icmp eq i8 %51, 0
  br i1 %.not2834, label %._crit_edge, label %.lr.ph

.lr.ph:                                           ; preds = %g_string_append_c_inline.exit31, %69
  %.02535 = phi ptr [ %75, %69 ], [ %9, %g_string_append_c_inline.exit31 ]
  %52 = tail call i32 @g_utf8_get_char(ptr noundef %.02535) #29
  switch i32 %52, label %g_string_append_c_inline.exit32 [
    i32 92, label %53
    i32 34, label %53
  ]

53:                                               ; preds = %.lr.ph, %.lr.ph
  %54 = load i64, ptr %4, align 8
  %55 = add i64 %54, 1
  %56 = load i64, ptr %5, align 8
  %57 = icmp ult i64 %55, %56
  br i1 %57, label %58, label %64

58:                                               ; preds = %53
  %59 = load ptr, ptr %2, align 8
  store i64 %55, ptr %4, align 8
  %60 = getelementptr i8, ptr %59, i64 %54
  store i8 92, ptr %60, align 1
  %61 = load ptr, ptr %2, align 8
  %62 = load i64, ptr %4, align 8
  %63 = getelementptr i8, ptr %61, i64 %62
  store i8 0, ptr %63, align 1
  br label %g_string_append_c_inline.exit32

64:                                               ; preds = %53
  %65 = tail call ptr @g_string_insert_c(ptr noundef %2, i64 noundef -1, i8 noundef signext 92)
  br label %g_string_append_c_inline.exit32

g_string_append_c_inline.exit32:                  ; preds = %64, %58, %.lr.ph
  %66 = tail call i32 @g_unichar_isprint(i32 noundef %52) #30
  %.not29 = icmp eq i32 %66, 0
  br i1 %.not29, label %69, label %67

67:                                               ; preds = %g_string_append_c_inline.exit32
  %68 = tail call ptr @g_string_append_unichar(ptr noundef %2, i32 noundef %52)
  br label %69

69:                                               ; preds = %67, %g_string_append_c_inline.exit32
  %70 = load i8, ptr %.02535, align 1
  %71 = zext i8 %70 to i64
  %72 = getelementptr i8, ptr %6, i64 %71
  %73 = load i8, ptr %72, align 1
  %74 = sext i8 %73 to i64
  %75 = getelementptr i8, ptr %.02535, i64 %74
  %76 = load i8, ptr %75, align 1
  %.not28 = icmp eq i8 %76, 0
  br i1 %.not28, label %._crit_edge, label %.lr.ph, !llvm.loop !27

._crit_edge:                                      ; preds = %69, %g_string_append_c_inline.exit31
  %77 = load i64, ptr %4, align 8
  %78 = add i64 %77, 1
  %79 = load i64, ptr %5, align 8
  %80 = icmp ult i64 %78, %79
  br i1 %80, label %81, label %87

81:                                               ; preds = %._crit_edge
  %82 = load ptr, ptr %2, align 8
  store i64 %78, ptr %4, align 8
  %83 = getelementptr i8, ptr %82, i64 %77
  store i8 34, ptr %83, align 1
  %84 = load ptr, ptr %2, align 8
  %85 = load i64, ptr %4, align 8
  %86 = getelementptr i8, ptr %84, i64 %85
  store i8 0, ptr %86, align 1
  br label %g_string_append_c_inline.exit33

87:                                               ; preds = %._crit_edge
  %88 = tail call ptr @g_string_insert_c(ptr noundef %2, i64 noundef -1, i8 noundef signext 34)
  br label %g_string_append_c_inline.exit33

g_string_append_c_inline.exit33:                  ; preds = %81, %87
  %89 = getelementptr inbounds nuw i8, ptr %.038, i64 8
  %90 = load ptr, ptr %89, align 8
  %.not = icmp eq ptr %90, null
  br i1 %.not, label %._crit_edge41, label %7, !llvm.loop !28

._crit_edge41:                                    ; preds = %g_string_append_c_inline.exit33, %1
  %91 = tail call ptr @g_string_free(ptr noundef %2, i32 noundef 0)
  ret ptr %91
}